(lp0
I40
aI40
aI40
aI40
aI40
aI40
aI40
aI40
aI40
aI40
aI40
aI40
aI40
aI40
aI40
aI40
aI40
aI40
aI40
aI40
aI40
aI40
aI40
aI40
aI40
aI40
aI40
aI40
aI40
aI40
aI40
aI40
aI40
aI40
aI40
aI40
aI40
aI40
aI40
aI40
aI40
aI40
aI40
aI40
aI40
aI40
a.