(lp0
I12
aI12
aI12
aI12
aI12
aI12
aI12
aI12
aI12
aI12
aI12
aI12
aI12
aI12
aI12
aI12
aI12
aI12
aI12
aI12
aI12
aI12
aI12
aI12
aI12
aI12
aI12
aI12
aI12
aI12
aI12
aI12
aI12
aI12
aI12
aI12
aI12
aI12
aI12
aI12
aI12
aI12
aI12
aI12
aI12
aI12
aI12
aI12
aI12
aI12
aI12
aI12
aI12
aI12
aI12
aI12
aI12
aI12
aI12
aI12
aI12
aI12
aI12
aI12
aI12
aI12
aI12
aI12
aI12
aI12
aI12
aI12
aI12
aI12
aI12
aI12
aI12
aI12
aI12
aI12
aI12
aI12
aI12
aI12
aI12
aI12
aI12
aI12
aI12
aI12
aI12
aI12
aI12
aI12
aI12
aI12
aI12
aI12
aI12
aI12
aI12
aI12
aI12
aI12
aI12
aI12
aI12
aI12
aI12
aI12
aI12
aI12
aI12
aI12
aI12
a.