(lp0
I21
aI21
aI21
aI21
aI21
aI21
aI21
aI21
aI21
aI21
aI21
aI21
aI21
aI21
aI21
aI21
aI21
aI21
aI21
aI21
aI21
aI21
aI21
aI21
aI21
aI21
aI21
aI21
aI21
aI21
aI21
aI21
aI21
aI21
aI21
aI21
aI21
aI21
aI21
aI21
aI21
aI21
aI21
aI21
aI21
aI21
aI21
aI21
aI21
aI21
aI21
aI21
aI21
aI21
aI21
aI21
aI21
aI21
aI21
aI21
aI21
aI21
aI21
aI21
aI21
aI21
aI21
aI21
aI21
aI21
aI21
aI21
aI21
aI21
aI21
aI21
aI21
aI21
aI21
aI21
aI21
aI21
aI21
aI21
aI21
aI21
aI21
aI21
aI21
aI21
aI21
aI21
a.