(lp0
I35
aI35
aI35
aI35
aI35
aI35
aI35
aI35
aI35
aI35
aI35
aI35
aI35
aI35
aI35
aI35
aI35
aI35
aI35
aI35
aI35
aI35
aI35
aI35
aI35
aI35
aI35
aI35
aI35
aI35
aI35
aI35
aI35
aI35
aI35
aI35
aI35
aI35
aI35
aI35
aI35
aI35
aI35
aI35
aI35
aI35
aI35
aI35
aI35
aI35
aI35
aI35
aI35
aI35
aI35
aI35
aI35
aI35
aI35
aI35
aI35
aI35
aI35
aI35
aI35
aI35
aI35
a.