(lp0
I57
aI57
aI57
aI57
aI57
aI57
aI57
aI57
aI57
aI57
aI57
aI57
aI57
aI57
aI57
aI57
aI57
aI57
aI57
aI57
aI57
aI57
aI57
aI57
aI57
aI57
aI57
aI57
aI57
aI57
aI57
aI57
aI57
aI57
aI57
aI57
aI57
aI57
aI57
aI57
aI57
a.