(lp0
I15
aI15
aI15
aI15
aI15
aI15
aI15
aI15
aI15
aI15
aI15
aI15
aI15
aI15
aI15
aI15
aI15
aI15
aI15
aI15
aI15
aI15
aI15
aI15
aI15
aI15
aI15
aI15
aI15
aI15
aI15
aI15
aI15
aI15
aI15
aI15
aI15
aI15
aI15
aI15
aI15
aI15
aI15
aI15
aI15
aI15
aI15
aI15
aI15
aI15
aI15
aI15
aI15
aI15
aI15
aI15
aI15
aI15
aI15
aI15
aI15
aI15
aI15
aI15
aI15
aI15
aI15
aI15
aI15
aI15
aI15
aI15
aI15
aI15
aI15
aI15
aI15
aI15
aI15
aI15
aI15
aI15
aI15
aI15
aI15
aI15
aI15
aI15
aI15
aI15
aI15
aI15
aI15
aI15
aI15
aI15
aI15
aI15
aI15
aI15
aI15
aI15
aI15
aI15
aI15
aI15
aI15
aI15
aI15
aI15
aI15
aI15
aI15
aI15
aI15
aI15
aI15
aI15
aI15
aI15
aI15
aI15
aI15
aI15
aI15
aI15
aI15
aI15
aI15
aI15
aI15
aI15
aI15
aI15
aI15
aI15
aI15
aI15
aI15
aI15
aI15
aI15
aI15
aI15
aI15
aI15
aI15
aI15
aI15
aI15
aI15
aI15
aI15
aI15
aI15
aI15
aI15
aI15
aI15
aI15
aI15
aI15
aI15
aI15
aI15
aI15
aI15
aI15
aI15
aI15
aI15
aI15
aI15
aI15
aI15
aI15
aI15
aI15
aI15
aI15
aI15
aI15
aI15
aI15
aI15
aI15
aI15
aI15
aI15
aI15
aI15
aI15
aI15
aI15
aI15
aI15
aI15
aI15
aI15
aI15
aI15
aI15
aI15
aI15
aI15
aI15
aI15
aI15
aI15
aI15
aI15
aI15
aI15
aI15
aI15
aI15
aI15
aI15
aI15
aI15
aI15
aI15
aI15
aI15
aI15
aI15
aI15
aI15
aI15
aI15
aI15
aI15
aI15
aI15
aI15
aI15
aI15
aI15
aI15
aI15
aI15
aI15
aI15
aI15
aI15
aI15
aI15
aI15
aI15
aI15
aI15
aI15
aI15
aI15
aI15
aI15
aI15
aI15
aI15
aI15
aI15
aI15
aI15
aI15
aI15
aI15
aI15
aI15
aI15
aI15
aI15
aI15
aI15
aI15
aI15
aI15
aI15
aI15
aI15
aI15
aI15
aI15
aI15
aI15
aI15
aI15
aI15
aI15
aI15
aI15
aI15
aI15
aI15
aI15
aI15
aI15
aI15
aI15
aI15
aI15
aI15
aI15
aI15
aI15
aI15
aI15
aI15
aI15
aI15
aI15
aI15
aI15
aI15
aI15
aI15
aI15
aI15
aI15
aI15
aI15
aI15
aI15
aI15
aI15
aI15
aI15
aI15
aI15
aI15
aI15
aI15
aI15
aI15
aI15
aI15
aI15
aI15
aI15
aI15
aI15
aI15
aI15
aI15
aI15
aI15
aI15
aI15
aI15
aI15
aI15
aI15
aI15
aI15
aI15
aI15
aI15
aI15
aI15
aI15
aI15
aI15
aI15
aI15
aI15
aI15
aI15
aI15
aI15
aI15
aI15
aI15
aI15
aI15
aI15
aI15
aI15
aI15
aI15
aI15
aI15
aI15
aI15
aI15
aI15
aI15
aI15
aI15
aI15
aI15
aI15
aI15
aI15
aI15
aI15
aI15
aI15
aI15
aI15
aI15
aI15
aI15
aI15
aI15
aI15
aI15
aI15
aI15
aI15
aI15
aI15
aI15
aI15
aI15
aI15
aI15
aI15
aI15
aI15
aI15
aI15
aI15
aI15
aI15
aI15
aI15
aI15
aI15
aI15
aI15
aI15
aI15
aI15
aI15
aI15
aI15
aI15
aI15
aI15
aI15
aI15
aI15
aI15
aI15
aI15
aI15
aI15
a.